; Function Attrs: nounwind uwtable
define dso_local void @makeBall(i32 noundef %0, i32 noundef %1, ptr noundef readonly captures(none) %2) local_unnamed_addr #0 {
  %.not39.i = icmp eq i32 %0, 0
  br i1 %.not39.i, label %makeCylinder.exit, label %.preheader37.lr.ph.i

.preheader37.lr.ph.i:                             ; preds = %3
  %4 = icmp ugt i32 %1, 1
  br i1 %4, label %.preheader37.us.i, label %.preheader37.i

.preheader37.us.i:                                ; preds = %.preheader37.lr.ph.i, %._crit_edge.us.i
  %.03141.us.i = phi i32 [ %8, %._crit_edge.us.i ], [ 0, %.preheader37.lr.ph.i ]
  %.03240.us.i = phi i32 [ %9, %._crit_edge.us.i ], [ 1, %.preheader37.lr.ph.i ]
  %invariant.op.us.i = add i32 %.03141.us.i, 1
  br label %5

5:                                                ; preds = %5, %.preheader37.us.i
  %.03038.us.i = phi i32 [ 1, %.preheader37.us.i ], [ %7, %5 ]
  %6 = add i32 %.03038.us.i, %.03141.us.i
  %.reass.us.i = add i32 %.03038.us.i, %invariant.op.us.i
  tail call void %2(i32 noundef %6, i32 noundef %.reass.us.i) #15
  %7 = add nuw i32 %.03038.us.i, 1
  %exitcond.not.i = icmp eq i32 %7, %1
  br i1 %exitcond.not.i, label %._crit_edge.us.i, label %5, !llvm.loop !24

._crit_edge.us.i:                                 ; preds = %5
  %8 = add i32 %.03141.us.i, %1
  tail call void %2(i32 noundef %invariant.op.us.i, i32 noundef %8) #15
  %9 = add i32 %.03240.us.i, 1
  %.not.us.i = icmp ugt i32 %9, %0
  br i1 %.not.us.i, label %.preheader.lr.ph.i, label %.preheader37.us.i, !llvm.loop !25

.preheader37.i:                                   ; preds = %.preheader37.lr.ph.i, %.preheader37.i
  %.03141.i = phi i32 [ %11, %.preheader37.i ], [ 0, %.preheader37.lr.ph.i ]
  %.03240.i = phi i32 [ %12, %.preheader37.i ], [ 1, %.preheader37.lr.ph.i ]
  %10 = add i32 %.03141.i, 1
  %11 = add i32 %.03141.i, %1
  tail call void %2(i32 noundef %10, i32 noundef %11) #15
  %12 = add i32 %.03240.i, 1
  %.not.i = icmp ugt i32 %12, %0
  br i1 %.not.i, label %.preheader36.i, label %.preheader37.i, !llvm.loop !25

.preheader36.i:                                   ; preds = %.preheader37.i
  %.not3543.i = icmp ne i32 %1, 0
  %13 = icmp ne i32 %0, 1
  %or.cond.i = and i1 %13, %.not3543.i
  br i1 %or.cond.i, label %.preheader.us.i.preheader, label %makeCylinder.exit

.preheader.lr.ph.i:                               ; preds = %._crit_edge.us.i
  %.old.not.i = icmp eq i32 %0, 1
  br i1 %.old.not.i, label %.lr.ph.preheader, label %.preheader.us.i.preheader

.preheader.us.i.preheader:                        ; preds = %.preheader.lr.ph.i, %.preheader36.i
  br label %.preheader.us.i

.preheader.us.i:                                  ; preds = %.preheader.us.i.preheader, %._crit_edge.us46.i
  %.02944.us.i = phi i32 [ %21, %._crit_edge.us46.i ], [ 1, %.preheader.us.i.preheader ]
  br label %14

14:                                               ; preds = %14, %.preheader.us.i
  %.042.us.i = phi i32 [ 1, %.preheader.us.i ], [ %20, %14 ]
  %15 = add i32 %.042.us.i, -1
  %16 = mul i32 %15, %1
  %17 = add i32 %16, %.02944.us.i
  %18 = mul i32 %.042.us.i, %1
  %19 = add i32 %18, %.02944.us.i
  tail call void %2(i32 noundef %17, i32 noundef %19) #15
  %20 = add nuw i32 %.042.us.i, 1
  %exitcond49.not.i = icmp eq i32 %20, %0
  br i1 %exitcond49.not.i, label %._crit_edge.us46.i, label %14, !llvm.loop !26

._crit_edge.us46.i:                               ; preds = %14
  %21 = add i32 %.02944.us.i, 1
  %.not35.us.i = icmp ugt i32 %21, %1
  br i1 %.not35.us.i, label %makeCylinder.exit, label %.preheader.us.i, !llvm.loop !27

makeCylinder.exit:                                ; preds = %._crit_edge.us46.i, %3, %.preheader36.i
  %.not23 = icmp eq i32 %1, 0
  br i1 %.not23, label %._crit_edge, label %.lr.ph.preheader

.lr.ph.preheader:                                 ; preds = %.preheader.lr.ph.i, %makeCylinder.exit
  br label %.lr.ph

._crit_edge:                                      ; preds = %.lr.ph, %makeCylinder.exit
  %22 = mul i32 %1, %0
  %23 = add i32 %22, 1
  %24 = add i32 %0, -1
  %25 = mul i32 %24, %1
  %.025 = add i32 %25, 1
  %.not2026 = icmp ugt i32 %.025, %22
  br i1 %.not2026, label %._crit_edge30, label %.lr.ph29

.lr.ph:                                           ; preds = %.lr.ph.preheader, %.lr.ph
  %.01824 = phi i32 [ %26, %.lr.ph ], [ 1, %.lr.ph.preheader ]
  tail call void %2(i32 noundef 0, i32 noundef %.01824) #15
  %26 = add i32 %.01824, 1
  %.not = icmp ugt i32 %26, %1
  br i1 %.not, label %._crit_edge, label %.lr.ph, !llvm.loop !50

._crit_edge30:                                    ; preds = %.lr.ph29, %._crit_edge
  ret void

.lr.ph29:                                         ; preds = %._crit_edge, %.lr.ph29
  %.027 = phi i32 [ %.0, %.lr.ph29 ], [ %.025, %._crit_edge ]
  tail call void %2(i32 noundef %.027, i32 noundef %23) #15
  %.0 = add i32 %.027, 1
  %.not20 = icmp ugt i32 %.0, %22
  br i1 %.not20, label %._crit_edge30, label %.lr.ph29, !llvm.loop !51
}